target datalayout = "e-m:e-p270:32:32-p271:32:32-p272:64:64-i64:64-i128:128-f80:128-n8:16:32:64-S128"
target triple = "x86_64-pc-linux-gnu"

%struct._proto_node = type { ptr, ptr, ptr, ptr, ptr, ptr, ptr }
%struct.field_info = type { ptr, i32, i32, i32, i32, i32, i32, ptr, ptr, ptr, i32, i32 }
%struct._item_label_t = type { [240 x i8], i64, i64 }
%struct._header_field_info = type { ptr, ptr, i32, i32, ptr, i64, ptr, i32, i32, i32, i32, ptr }
%struct.write_json_data = type { ptr, ptr, i8, i8, ptr, ptr }

@.str.60 = private unnamed_addr constant [1 x i8] zeroinitializer, align 1

; Function Attrs: null_pointer_is_valid sspstrong uwtable
define internal void @write_json_proto_node_no_value(ptr noundef %0, ptr noundef %1) #0 {
  %3 = alloca ptr, align 8
  %4 = alloca ptr, align 8
  %5 = alloca ptr, align 8
  %6 = alloca [240 x i8], align 16
  store ptr %0, ptr %3, align 8
  store ptr %1, ptr %4, align 8
  call void @llvm.lifetime.start.p0(i64 8, ptr %5) #15
  %7 = load ptr, ptr %3, align 8
  %8 = getelementptr inbounds nuw %struct._proto_node, ptr %7, i32 0, i32 5
  %9 = load ptr, ptr %8, align 8
  store ptr %9, ptr %5, align 8
  %10 = load ptr, ptr %5, align 8
  %11 = getelementptr inbounds nuw %struct.field_info, ptr %10, i32 0, i32 0
  %12 = load ptr, ptr %11, align 8
  %13 = getelementptr inbounds nuw %struct._header_field_info, ptr %12, i32 0, i32 2
  %14 = load i32, ptr %13, align 8
  %15 = icmp eq i32 %14, 1
  br i1 %15, label %16, label %38

16:                                               ; preds = %2
  %17 = load ptr, ptr %5, align 8
  %18 = getelementptr inbounds nuw %struct.field_info, ptr %17, i32 0, i32 7
  %19 = load ptr, ptr %18, align 8
  %20 = icmp ne ptr %19, null
  br i1 %20, label %21, label %30

21:                                               ; preds = %16
  %22 = load ptr, ptr %4, align 8
  %23 = getelementptr inbounds nuw %struct.write_json_data, ptr %22, i32 0, i32 5
  %24 = load ptr, ptr %23, align 8
  %25 = load ptr, ptr %5, align 8
  %26 = getelementptr inbounds nuw %struct.field_info, ptr %25, i32 0, i32 7
  %27 = load ptr, ptr %26, align 8
  %28 = getelementptr inbounds nuw %struct._item_label_t, ptr %27, i32 0, i32 0
  %29 = getelementptr inbounds [240 x i8], ptr %28, i64 0, i64 0
  call void @json_dumper_value_string(ptr noundef %24, ptr noundef %29)
  br label %37

30:                                               ; preds = %16
  call void @llvm.lifetime.start.p0(i64 240, ptr %6) #15
  %31 = load ptr, ptr %5, align 8
  %32 = getelementptr inbounds [240 x i8], ptr %6, i64 0, i64 0
  call void @proto_item_fill_label(ptr noundef %31, ptr noundef %32, ptr noundef null)
  %33 = load ptr, ptr %4, align 8
  %34 = getelementptr inbounds nuw %struct.write_json_data, ptr %33, i32 0, i32 5
  %35 = load ptr, ptr %34, align 8
  %36 = getelementptr inbounds [240 x i8], ptr %6, i64 0, i64 0
  call void @json_dumper_value_string(ptr noundef %35, ptr noundef %36)
  call void @llvm.lifetime.end.p0(i64 240, ptr %6) #15
  br label %37

37:                                               ; preds = %30, %21
  br label %42

38:                                               ; preds = %2
  %39 = load ptr, ptr %4, align 8
  %40 = getelementptr inbounds nuw %struct.write_json_data, ptr %39, i32 0, i32 5
  %41 = load ptr, ptr %40, align 8
  call void @json_dumper_value_string(ptr noundef %41, ptr noundef @.str.60)
  br label %42

42:                                               ; preds = %38, %37
  call void @llvm.lifetime.end.p0(i64 8, ptr %5) #15
  ret void
}