; Function Attrs: null_pointer_is_valid sspstrong uwtable
define internal void @write_json_proto_node_no_value(ptr noundef readonly captures(none) %0, ptr noundef readonly captures(none) %1) #0 {
  %3 = alloca [240 x i8], align 16
  %4 = getelementptr inbounds nuw i8, ptr %0, i64 40
  %5 = load ptr, ptr %4, align 8
  %6 = load ptr, ptr %5, align 8
  %7 = getelementptr inbounds nuw i8, ptr %6, i64 16
  %8 = load i32, ptr %7, align 8
  %9 = icmp eq i32 %8, 1
  br i1 %9, label %10, label %19

10:                                               ; preds = %2
  %11 = getelementptr inbounds nuw i8, ptr %5, i64 32
  %12 = load ptr, ptr %11, align 8
  %.not = icmp eq ptr %12, null
  br i1 %.not, label %16, label %13

13:                                               ; preds = %10
  %14 = getelementptr inbounds nuw i8, ptr %1, i64 32
  %15 = load ptr, ptr %14, align 8
  tail call void @json_dumper_value_string(ptr noundef %15, ptr noundef nonnull %12)
  br label %22

16:                                               ; preds = %10
  call void @llvm.lifetime.start.p0(i64 240, ptr nonnull %3) #21
  call void @proto_item_fill_label(ptr noundef %5, ptr noundef nonnull %3, ptr noundef null)
  %17 = getelementptr inbounds nuw i8, ptr %1, i64 32
  %18 = load ptr, ptr %17, align 8
  call void @json_dumper_value_string(ptr noundef %18, ptr noundef nonnull %3)
  call void @llvm.lifetime.end.p0(i64 240, ptr nonnull %3) #21
  br label %22

19:                                               ; preds = %2
  %20 = getelementptr inbounds nuw i8, ptr %1, i64 32
  %21 = load ptr, ptr %20, align 8
  tail call void @json_dumper_value_string(ptr noundef %21, ptr noundef nonnull @.str.60)
  br label %22

22:                                               ; preds = %13, %16, %19
  ret void
}